; ModuleID = '17/606.c'
source_filename = "17/606.c"
target datalayout = "e-m:e-p270:32:32-p271:32:32-p272:64:64-i64:64-f80:128-n8:16:32:64-S128"
target triple = "x86_64-pc-linux-gnu"

; Function Attrs: noinline nounwind uwtable
define dso_local i32 @main() #0 {
  %1 = alloca i32, align 4
  %2 = alloca [200 x i8], align 16
  %3 = alloca [200 x i8], align 16
  %4 = alloca [200 x i32], align 16
  %5 = alloca i32, align 4
  %6 = alloca i32, align 4
  %7 = alloca i32, align 4
  store i32 0, i32* %1, align 4
  br label %8

8:                                                ; preds = %85, %0
  %9 = getelementptr inbounds [200 x i8], [200 x i8]* %2, i64 0, i64 0
  %10 = call i32 (i8*, ...) bitcast (i32 (...)* @gets to i32 (i8*, ...)*)(i8* %9)
  %11 = icmp ne i32 %10, 0
  br i1 %11, label %12, label %88

12:                                               ; preds = %8
  store i32 0, i32* %5, align 4
  %13 = getelementptr inbounds [200 x i8], [200 x i8]* %2, i64 0, i64 0
  %14 = call i32 @puts(i8* %13)
  %15 = getelementptr inbounds [200 x i8], [200 x i8]* %3, i64 0, i64 0
  call void @llvm.memset.p0i8.i64(i8* align 16 %15, i8 0, i64 200, i1 false)
  store i32 0, i32* %6, align 4
  br label %16

16:                                               ; preds = %67, %12
  %17 = load i32, i32* %6, align 4
  %18 = sext i32 %17 to i64
  %19 = getelementptr inbounds [200 x i8], [200 x i8]* %2, i64 0, i64 0
  %20 = call i64 @strlen(i8* %19) #4
  %21 = icmp ult i64 %18, %20
  br i1 %21, label %22, label %70

22:                                               ; preds = %16
  %23 = load i32, i32* %6, align 4
  %24 = sext i32 %23 to i64
  %25 = getelementptr inbounds [200 x i8], [200 x i8]* %2, i64 0, i64 %24
  %26 = load i8, i8* %25, align 1
  %27 = sext i8 %26 to i32
  %28 = icmp eq i32 %27, 40
  br i1 %28, label %29, label %35

29:                                               ; preds = %22
  %30 = load i32, i32* %6, align 4
  %31 = load i32, i32* %5, align 4
  %32 = add nsw i32 %31, 1
  store i32 %32, i32* %5, align 4
  %33 = sext i32 %32 to i64
  %34 = getelementptr inbounds [200 x i32], [200 x i32]* %4, i64 0, i64 %33
  store i32 %30, i32* %34, align 4
  br label %66

35:                                               ; preds = %22
  %36 = load i32, i32* %6, align 4
  %37 = sext i32 %36 to i64
  %38 = getelementptr inbounds [200 x i8], [200 x i8]* %2, i64 0, i64 %37
  %39 = load i8, i8* %38, align 1
  %40 = sext i8 %39 to i32
  %41 = icmp eq i32 %40, 41
  br i1 %41, label %42, label %61

42:                                               ; preds = %35
  %43 = load i32, i32* %5, align 4
  %44 = icmp ne i32 %43, 0
  br i1 %44, label %49, label %45

45:                                               ; preds = %42
  %46 = load i32, i32* %6, align 4
  %47 = sext i32 %46 to i64
  %48 = getelementptr inbounds [200 x i8], [200 x i8]* %3, i64 0, i64 %47
  store i8 63, i8* %48, align 1
  br label %60

49:                                               ; preds = %42
  %50 = load i32, i32* %6, align 4
  %51 = sext i32 %50 to i64
  %52 = getelementptr inbounds [200 x i8], [200 x i8]* %3, i64 0, i64 %51
  store i8 32, i8* %52, align 1
  %53 = load i32, i32* %5, align 4
  %54 = add nsw i32 %53, -1
  store i32 %54, i32* %5, align 4
  %55 = sext i32 %53 to i64
  %56 = getelementptr inbounds [200 x i32], [200 x i32]* %4, i64 0, i64 %55
  %57 = load i32, i32* %56, align 4
  %58 = sext i32 %57 to i64
  %59 = getelementptr inbounds [200 x i8], [200 x i8]* %3, i64 0, i64 %58
  store i8 32, i8* %59, align 1
  br label %60

60:                                               ; preds = %49, %45
  br label %65

61:                                               ; preds = %35
  %62 = load i32, i32* %6, align 4
  %63 = sext i32 %62 to i64
  %64 = getelementptr inbounds [200 x i8], [200 x i8]* %3, i64 0, i64 %63
  store i8 32, i8* %64, align 1
  br label %65

65:                                               ; preds = %61, %60
  br label %66

66:                                               ; preds = %65, %29
  br label %67

67:                                               ; preds = %66
  %68 = load i32, i32* %6, align 4
  %69 = add nsw i32 %68, 1
  store i32 %69, i32* %6, align 4
  br label %16

70:                                               ; preds = %16
  store i32 1, i32* %7, align 4
  br label %71

71:                                               ; preds = %82, %70
  %72 = load i32, i32* %7, align 4
  %73 = load i32, i32* %5, align 4
  %74 = icmp sle i32 %72, %73
  br i1 %74, label %75, label %85

75:                                               ; preds = %71
  %76 = load i32, i32* %7, align 4
  %77 = sext i32 %76 to i64
  %78 = getelementptr inbounds [200 x i32], [200 x i32]* %4, i64 0, i64 %77
  %79 = load i32, i32* %78, align 4
  %80 = sext i32 %79 to i64
  %81 = getelementptr inbounds [200 x i8], [200 x i8]* %3, i64 0, i64 %80
  store i8 36, i8* %81, align 1
  br label %82

82:                                               ; preds = %75
  %83 = load i32, i32* %7, align 4
  %84 = add nsw i32 %83, 1
  store i32 %84, i32* %7, align 4
  br label %71

85:                                               ; preds = %71
  %86 = getelementptr inbounds [200 x i8], [200 x i8]* %3, i64 0, i64 0
  %87 = call i32 @puts(i8* %86)
  br label %8

88:                                               ; preds = %8
  ret i32 0
}

declare dso_local i32 @gets(...) #1

declare dso_local i32 @puts(i8*) #1

; Function Attrs: argmemonly nounwind willreturn
declare void @llvm.memset.p0i8.i64(i8* nocapture writeonly, i8, i64, i1 immarg) #2

; Function Attrs: nounwind readonly
declare dso_local i64 @strlen(i8*) #3


!llvm.module.flags = !{!0}
!llvm.ident = !{!1}

!0 = !{i32 1, !"wchar_size", i32 4}
!1 = !{!"clang version 10.0.0-4ubuntu1 "}
